; Function Attrs: mustprogress nofree norecurse nosync nounwind memory(argmem: readwrite) uwtable
define void @_ZNK5faiss13CodePackerPQ48unpack_1EPKhmPh(ptr noundef nonnull readonly align 8 captures(none) dereferenceable(40) %0, ptr noundef readonly captures(none) %1, i64 noundef %2, ptr noundef writeonly captures(none) %3) unnamed_addr #0 align 2 {
  %5 = getelementptr inbounds nuw i8, ptr %0, i64 16
  %6 = load i64, ptr %5, align 8, !tbaa !4
  %.fr26 = freeze i64 %6
  %.not = icmp ult i64 %2, %.fr26
  br i1 %.not, label %14, label %7

7:                                                ; preds = %4
  %8 = udiv i64 %2, %.fr26
  %9 = getelementptr inbounds nuw i8, ptr %0, i64 24
  %10 = load i64, ptr %9, align 8, !tbaa !9
  %11 = mul i64 %10, %8
  %12 = getelementptr inbounds nuw i8, ptr %1, i64 %11
  %13 = urem i64 %2, %.fr26
  br label %14

14:                                               ; preds = %7, %4
  %.018 = phi i64 [ %13, %7 ], [ %2, %4 ]
  %.0 = phi ptr [ %12, %7 ], [ %1, %4 ]
  %15 = getelementptr inbounds nuw i8, ptr %0, i64 8
  %16 = load i64, ptr %15, align 8, !tbaa !10
  %.not25 = icmp eq i64 %16, 0
  br i1 %.not25, label %._crit_edge, label %.lr.ph

.lr.ph:                                           ; preds = %14
  %17 = getelementptr inbounds nuw i8, ptr %0, i64 32
  %18 = urem i64 %.018, %.fr26
  %19 = sub nuw i64 %.018, %18
  %20 = icmp ugt i64 %18, 15
  %21 = and i64 %18, 15
  %22 = icmp samesign ult i64 %21, 8
  %23 = shl nuw nsw i64 %21, 1
  %24 = add nsw i64 %23, -15
  %.0.i.i = select i1 %22, i64 %23, i64 %24
  br i1 %20, label %.lr.ph.split.us, label %.lr.ph.split

.lr.ph.split.us:                                  ; preds = %.lr.ph, %.lr.ph.split.us
  %.01924.us = phi i64 [ %42, %.lr.ph.split.us ], [ 0, %.lr.ph ]
  %25 = load i64, ptr %17, align 8, !tbaa !12
  %26 = and i64 %.01924.us, 9223372036854775807
  %27 = add i64 %25, 1
  %28 = lshr i64 %27, 1
  %29 = mul i64 %19, %28
  %30 = getelementptr inbounds nuw i8, ptr %.0, i64 %29
  %31 = mul i64 %26, %.fr26
  %32 = getelementptr i8, ptr %30, i64 %31
  %33 = getelementptr i8, ptr %32, i64 %.0.i.i
  %34 = load i8, ptr %33, align 1, !tbaa !11
  %35 = lshr i8 %34, 4
  %36 = getelementptr i8, ptr %32, i64 16
  %37 = getelementptr i8, ptr %36, i64 %.0.i.i
  %38 = load i8, ptr %37, align 1, !tbaa !11
  %39 = and i8 %38, -16
  %40 = or disjoint i8 %39, %35
  %41 = getelementptr inbounds nuw i8, ptr %3, i64 %.01924.us
  store i8 %40, ptr %41, align 1, !tbaa !11
  %42 = add nuw i64 %.01924.us, 1
  %43 = load i64, ptr %15, align 8, !tbaa !10
  %44 = icmp ult i64 %42, %43
  br i1 %44, label %.lr.ph.split.us, label %._crit_edge, !llvm.loop !16

._crit_edge:                                      ; preds = %.lr.ph.split, %.lr.ph.split.us, %14
  ret void

.lr.ph.split:                                     ; preds = %.lr.ph, %.lr.ph.split
  %.01924 = phi i64 [ %62, %.lr.ph.split ], [ 0, %.lr.ph ]
  %45 = load i64, ptr %17, align 8, !tbaa !12
  %46 = and i64 %.01924, 9223372036854775807
  %47 = add i64 %45, 1
  %48 = lshr i64 %47, 1
  %49 = mul i64 %19, %48
  %50 = getelementptr inbounds nuw i8, ptr %.0, i64 %49
  %51 = mul i64 %46, %.fr26
  %52 = getelementptr i8, ptr %50, i64 %51
  %53 = getelementptr i8, ptr %52, i64 %.0.i.i
  %54 = load i8, ptr %53, align 1, !tbaa !11
  %55 = and i8 %54, 15
  %56 = getelementptr i8, ptr %52, i64 16
  %57 = getelementptr i8, ptr %56, i64 %.0.i.i
  %58 = load i8, ptr %57, align 1, !tbaa !11
  %59 = shl i8 %58, 4
  %60 = or disjoint i8 %59, %55
  %61 = getelementptr inbounds nuw i8, ptr %3, i64 %.01924
  store i8 %60, ptr %61, align 1, !tbaa !11
  %62 = add nuw i64 %.01924, 1
  %63 = load i64, ptr %15, align 8, !tbaa !10
  %64 = icmp ult i64 %62, %63
  br i1 %64, label %.lr.ph.split, label %._crit_edge, !llvm.loop !16
}